target datalayout = "e-m:e-p270:32:32-p271:32:32-p272:64:64-i64:64-i128:128-f80:128-n8:16:32:64-S128"
target triple = "x86_64-pc-linux-gnu"

%struct.FxuCube = type { i32, ptr, ptr, %struct.FxuListLit, ptr, ptr, ptr }
%struct.FxuListLit = type { ptr, ptr, i32 }
%struct.FxuVar = type { i32, i32, ptr, ptr, %struct.FxuListLit, ptr, ptr, ptr }

; Function Attrs: nounwind uwtable
define void @Fxu_PairClearStorage(ptr noundef %0) #0 {
  %2 = alloca ptr, align 8
  %3 = alloca ptr, align 8
  %4 = alloca i32, align 4
  store ptr %0, ptr %2, align 8, !tbaa !8
  call void @llvm.lifetime.start.p0(i64 8, ptr %3) #6
  call void @llvm.lifetime.start.p0(i64 4, ptr %4) #6
  %5 = load ptr, ptr %2, align 8, !tbaa !8
  %6 = getelementptr inbounds nuw %struct.FxuCube, ptr %5, i32 0, i32 2
  %7 = load ptr, ptr %6, align 8, !tbaa !45
  store ptr %7, ptr %3, align 8, !tbaa !37
  store i32 0, ptr %4, align 4, !tbaa !25
  br label %8

8:                                                ; preds = %39, %1
  %9 = load i32, ptr %4, align 4, !tbaa !25
  %10 = load ptr, ptr %3, align 8, !tbaa !37
  %11 = getelementptr inbounds nuw %struct.FxuVar, ptr %10, i32 0, i32 1
  %12 = load i32, ptr %11, align 4, !tbaa !38
  %13 = icmp slt i32 %9, %12
  br i1 %13, label %14, label %42

14:                                               ; preds = %8
  %15 = load ptr, ptr %3, align 8, !tbaa !37
  %16 = getelementptr inbounds nuw %struct.FxuVar, ptr %15, i32 0, i32 3
  %17 = load ptr, ptr %16, align 8, !tbaa !41
  %18 = load ptr, ptr %2, align 8, !tbaa !8
  %19 = getelementptr inbounds nuw %struct.FxuCube, ptr %18, i32 0, i32 0
  %20 = load i32, ptr %19, align 8, !tbaa !20
  %21 = sext i32 %20 to i64
  %22 = getelementptr inbounds ptr, ptr %17, i64 %21
  %23 = load ptr, ptr %22, align 8, !tbaa !42
  %24 = load i32, ptr %4, align 4, !tbaa !25
  %25 = sext i32 %24 to i64
  %26 = getelementptr inbounds ptr, ptr %23, i64 %25
  store ptr null, ptr %26, align 8, !tbaa !29
  %27 = load ptr, ptr %3, align 8, !tbaa !37
  %28 = getelementptr inbounds nuw %struct.FxuVar, ptr %27, i32 0, i32 3
  %29 = load ptr, ptr %28, align 8, !tbaa !41
  %30 = load i32, ptr %4, align 4, !tbaa !25
  %31 = sext i32 %30 to i64
  %32 = getelementptr inbounds ptr, ptr %29, i64 %31
  %33 = load ptr, ptr %32, align 8, !tbaa !42
  %34 = load ptr, ptr %2, align 8, !tbaa !8
  %35 = getelementptr inbounds nuw %struct.FxuCube, ptr %34, i32 0, i32 0
  %36 = load i32, ptr %35, align 8, !tbaa !20
  %37 = sext i32 %36 to i64
  %38 = getelementptr inbounds ptr, ptr %33, i64 %37
  store ptr null, ptr %38, align 8, !tbaa !29
  br label %39

39:                                               ; preds = %14
  %40 = load i32, ptr %4, align 4, !tbaa !25
  %41 = add nsw i32 %40, 1
  store i32 %41, ptr %4, align 4, !tbaa !25
  br label %8, !llvm.loop !46

42:                                               ; preds = %8
  call void @llvm.lifetime.end.p0(i64 4, ptr %4) #6
  call void @llvm.lifetime.end.p0(i64 8, ptr %3) #6
  ret void
}