; Function Attrs: nofree norecurse nosync nounwind memory(readwrite, inaccessiblemem: none) uwtable
define void @Fxu_PairClearStorage(ptr noundef readonly captures(none) %0) local_unnamed_addr #7 {
  %2 = getelementptr inbounds nuw i8, ptr %0, i64 16
  %3 = load ptr, ptr %2, align 8, !tbaa !37
  %4 = getelementptr inbounds nuw i8, ptr %3, i64 4
  %5 = load i32, ptr %4, align 4, !tbaa !30
  %6 = icmp sgt i32 %5, 0
  br i1 %6, label %.lr.ph, label %._crit_edge

.lr.ph:                                           ; preds = %1
  %7 = getelementptr inbounds nuw i8, ptr %3, i64 16
  %8 = load ptr, ptr %7, align 8, !tbaa !33
  %9 = load i32, ptr %0, align 8, !tbaa !14
  %10 = sext i32 %9 to i64
  %11 = getelementptr inbounds ptr, ptr %8, i64 %10
  %12 = load ptr, ptr %11, align 8, !tbaa !34
  %wide.trip.count = zext nneg i32 %5 to i64
  br label %13

13:                                               ; preds = %.lr.ph, %13
  %indvars.iv = phi i64 [ 0, %.lr.ph ], [ %indvars.iv.next, %13 ]
  %14 = getelementptr inbounds nuw ptr, ptr %12, i64 %indvars.iv
  store ptr null, ptr %14, align 8, !tbaa !38
  %15 = getelementptr inbounds nuw ptr, ptr %8, i64 %indvars.iv
  %16 = load ptr, ptr %15, align 8, !tbaa !34
  %17 = getelementptr inbounds ptr, ptr %16, i64 %10
  store ptr null, ptr %17, align 8, !tbaa !38
  %indvars.iv.next = add nuw nsw i64 %indvars.iv, 1
  %exitcond.not = icmp eq i64 %indvars.iv.next, %wide.trip.count
  br i1 %exitcond.not, label %._crit_edge, label %13, !llvm.loop !39

._crit_edge:                                      ; preds = %13, %1
  ret void
}